target datalayout = "e-m:e-p270:32:32-p271:32:32-p272:64:64-i64:64-i128:128-f80:128-n8:16:32:64-S128"
target triple = "x86_64-pc-linux-gnu"

%class.Register = type { i32 }
%class.RelocationHolder = type { [40 x i8] }
%class.Relocation = type <{ ptr, ptr, i32, [4 x i8] }>
%class.DataRelocation.base = type { %class.Relocation.base }
%class.Relocation.base = type <{ ptr, ptr, i32 }>
%class.metadata_Relocation = type { %class.DataRelocation.base, i32 }

@_ZTV10Relocation = external unnamed_addr constant { [11 x ptr] }, align 8
@_ZTV19metadata_Relocation = external unnamed_addr constant { [11 x ptr] }, align 8

; Function Attrs: mustprogress nounwind uwtable
define linkonce_odr hidden void @_ZN10RelocationC2EN9relocInfo9relocTypeE(ptr noundef nonnull align 8 dereferenceable(20) %0, i32 noundef %1) unnamed_addr #1 comdat align 2 {
  %3 = alloca ptr, align 8
  %4 = alloca i32, align 4
  store ptr %0, ptr %3, align 8
  store i32 %1, ptr %4, align 4
  %5 = load ptr, ptr %3, align 8
  store ptr getelementptr inbounds inrange(-16, 72) ({ [11 x ptr] }, ptr @_ZTV10Relocation, i32 0, i32 0, i32 2), ptr %5, align 8
  %6 = getelementptr inbounds %class.Relocation, ptr %5, i32 0, i32 1
  store ptr null, ptr %6, align 8
  %7 = getelementptr inbounds %class.Relocation, ptr %5, i32 0, i32 2
  %8 = load i32, ptr %4, align 4
  store i32 %8, ptr %7, align 8
  ret void
}

; Function Attrs: mustprogress nounwind uwtable
define linkonce_odr hidden void @_ZN14DataRelocationC2EN9relocInfo9relocTypeE(ptr noundef nonnull align 8 dereferenceable(20) %0, i32 noundef %1) unnamed_addr #1 comdat align 2 {
  %3 = alloca ptr, align 8
  %4 = alloca i32, align 4
  store ptr %0, ptr %3, align 8
  store i32 %1, ptr %4, align 4
  %5 = load ptr, ptr %3, align 8
  %6 = load i32, ptr %4, align 4
  call void @_ZN10RelocationC2EN9relocInfo9relocTypeE(ptr noundef nonnull align 8 dereferenceable(20) %5, i32 noundef %6)
  store ptr getelementptr inbounds inrange(-16, 72) ({ [11 x ptr] }, ptr @_ZTV14DataRelocation, i32 0, i32 0, i32 2), ptr %5, align 8
  ret void
}

; Function Attrs: mustprogress nounwind uwtable
define linkonce_odr hidden void @_ZN19metadata_RelocationC2Ei(ptr noundef nonnull align 8 dereferenceable(24) %0, i32 noundef %1) unnamed_addr #1 comdat align 2 {
  %3 = alloca ptr, align 8
  %4 = alloca i32, align 4
  store ptr %0, ptr %3, align 8
  store i32 %1, ptr %4, align 4
  %5 = load ptr, ptr %3, align 8
  call void @_ZN14DataRelocationC2EN9relocInfo9relocTypeE(ptr noundef nonnull align 8 dereferenceable(20) %5, i32 noundef 12)
  store ptr getelementptr inbounds inrange(-16, 72) ({ [11 x ptr] }, ptr @_ZTV19metadata_Relocation, i32 0, i32 0, i32 2), ptr %5, align 8
  %6 = getelementptr inbounds %class.metadata_Relocation, ptr %5, i32 0, i32 1
  %7 = load i32, ptr %4, align 4
  store i32 %7, ptr %6, align 4
  ret void
}

; Function Attrs: mustprogress nounwind uwtable
define linkonce_odr hidden void @_ZN16RelocationHolder18emplace_relocationI19metadata_RelocationJiEEEvDpRKT0_(ptr noundef nonnull align 8 dereferenceable(40) %0, ptr noundef nonnull align 4 dereferenceable(4) %1) #1 comdat align 2 {
  %3 = alloca ptr, align 8
  %4 = alloca ptr, align 8
  %5 = alloca ptr, align 8
  store ptr %0, ptr %3, align 8
  store ptr %1, ptr %4, align 8
  %6 = load ptr, ptr %3, align 8
  %7 = getelementptr inbounds %class.RelocationHolder, ptr %6, i32 0, i32 0
  %8 = getelementptr inbounds [40 x i8], ptr %7, i64 0, i64 0
  %9 = load ptr, ptr %4, align 8
  %10 = load i32, ptr %9, align 4
  call void @_ZN19metadata_RelocationC2Ei(ptr noundef nonnull align 8 dereferenceable(24) %8, i32 noundef %10)
  store ptr %8, ptr %5, align 8
  ret void
}

; Function Attrs: mustprogress nounwind uwtable
define linkonce_odr hidden void @_ZN16RelocationHolderC2I19metadata_RelocationJiEEENS_9ConstructIT_EEDpRKT0_(ptr noundef nonnull align 8 dereferenceable(40) %0, ptr noundef nonnull align 4 dereferenceable(4) %1) unnamed_addr #1 comdat align 2 {
  %3 = alloca ptr, align 8
  %4 = alloca ptr, align 8
  store ptr %0, ptr %3, align 8
  store ptr %1, ptr %4, align 8
  %5 = load ptr, ptr %3, align 8
  %6 = load ptr, ptr %4, align 8
  call void @_ZN16RelocationHolder18emplace_relocationI19metadata_RelocationJiEEEvDpRKT0_(ptr noundef nonnull align 8 dereferenceable(40) %5, ptr noundef nonnull align 4 dereferenceable(4) %6)
  ret void
}

; Function Attrs: mustprogress nounwind uwtable
define linkonce_odr hidden void @_ZN16RelocationHolder9constructI19metadata_RelocationJiEEES_DpRKT0_(ptr dead_on_unwind noalias writable sret(%class.RelocationHolder) align 8 %0, ptr noundef nonnull align 4 dereferenceable(4) %1) #1 comdat align 2 {
  %3 = alloca ptr, align 8
  %4 = alloca ptr, align 8
  store ptr %0, ptr %3, align 8
  store ptr %1, ptr %4, align 8
  %5 = load ptr, ptr %4, align 8
  call void @_ZN16RelocationHolderC2I19metadata_RelocationJiEEENS_9ConstructIT_EEDpRKT0_(ptr noundef nonnull align 8 dereferenceable(40) %0, ptr noundef nonnull align 4 dereferenceable(4) %5)
  ret void
}

; Function Attrs: mustprogress nounwind uwtable
define linkonce_odr hidden void @_ZN19metadata_Relocation18spec_for_immediateEv(ptr dead_on_unwind noalias writable sret(%class.RelocationHolder) align 8 %0) #1 comdat align 2 {
  %2 = alloca ptr, align 8
  %3 = alloca i32, align 4
  store ptr %0, ptr %2, align 8
  store i32 0, ptr %3, align 4
  call void @_ZN16RelocationHolder9constructI19metadata_RelocationJiEEES_DpRKT0_(ptr dead_on_unwind writable sret(%class.RelocationHolder) align 8 %0, ptr noundef nonnull align 4 dereferenceable(4) %3)
  ret void
}

; Function Attrs: mustprogress nounwind uwtable
define hidden void @_ZN14MacroAssembler12mov_metadataE8RegisterP8Metadata(ptr noundef nonnull align 8 dereferenceable(40) %0, i32 %1, ptr noundef %2) #1 align 2 {
  %4 = alloca %class.Register, align 4
  %5 = alloca ptr, align 8
  %6 = alloca ptr, align 8
  %7 = alloca %class.Register, align 4
  %8 = alloca %class.RelocationHolder, align 8
  %9 = getelementptr inbounds %class.Register, ptr %4, i32 0, i32 0
  store i32 %1, ptr %9, align 4
  store ptr %0, ptr %5, align 8
  store ptr %2, ptr %6, align 8
  %10 = load ptr, ptr %5, align 8
  call void @llvm.memcpy.p0.p0.i64(ptr align 4 %7, ptr align 4 %4, i64 4, i1 false)
  %11 = load ptr, ptr %6, align 8
  %12 = ptrtoint ptr %11 to i64
  call void @_ZN19metadata_Relocation18spec_for_immediateEv(ptr dead_on_unwind writable sret(%class.RelocationHolder) align 8 %8)
  %13 = getelementptr inbounds %class.Register, ptr %7, i32 0, i32 0
  %14 = load i32, ptr %13, align 4
  call void @_ZN9Assembler13mov_literal64E8RegisterlRK16RelocationHolder(ptr noundef nonnull align 8 dereferenceable(40) %10, i32 %14, i64 noundef %12, ptr noundef nonnull align 8 dereferenceable(40) %8)
  ret void
}