; Function Attrs: mustprogress nounwind uwtable
define hidden void @_ZN14MacroAssembler12mov_metadataE8RegisterP8Metadata(ptr noundef nonnull align 8 dereferenceable(40) %0, i32 %1, ptr noundef %2) local_unnamed_addr #0 align 2 {
  %4 = alloca %class.RelocationHolder, align 8
  %5 = ptrtoint ptr %2 to i64
  %6 = getelementptr inbounds i8, ptr %4, i64 8
  store ptr null, ptr %6, align 8, !alias.scope !34
  %7 = getelementptr inbounds i8, ptr %4, i64 16
  store i32 12, ptr %7, align 8, !alias.scope !34
  store ptr getelementptr inbounds inrange(-16, 72) (i8, ptr @_ZTV19metadata_Relocation, i64 16), ptr %4, align 8, !alias.scope !34
  %8 = getelementptr inbounds i8, ptr %4, i64 20
  store i32 0, ptr %8, align 4, !alias.scope !34
  call void @_ZN9Assembler13mov_literal64E8RegisterlRK16RelocationHolder(ptr noundef nonnull align 8 dereferenceable(40) %0, i32 %1, i64 noundef %5, ptr noundef nonnull align 8 dereferenceable(40) %4) #18
  ret void
}